Certificate:
    Data:
        Version: 3 (0x2)
        Serial Number: 1 (0x1)
    Signature Algorithm: sha1WithRSAEncryption
        Issuer: DC=de, DC=codecentric, O=codecentric AG, OU=codecentric Root CA, CN=codecentric Root CA
        Validity
            Not Before: Nov 27 16:22:30 2015 GMT
            Not After : Nov 26 16:22:30 2025 GMT
        Subject: DC=de, DC=codecentric, O=codecentric AG, OU=codecentric Root CA, CN=codecentric Root CA
        Subject Public Key Info:
            Public Key Algorithm: rsaEncryption
                Public-Key: (2048 bit)
                Modulus:
                    00:ce:97:4a:b2:2b:ff:21:ab:d1:65:34:d0:3c:5c:
                    0f:63:25:da:d3:b0:a8:eb:4e:42:7c:84:51:ad:f7:
                    ad:ef:6d:67:9d:11:06:d5:d5:db:12:36:f1:a2:e3:
                    8f:36:e0:71:7e:a9:71:cc:46:df:90:89:45:f8:67:
                    60:db:17:d1:e8:4a:0d:92:5a:a5:f8:e9:cf:43:82:
                    62:df:18:6f:0e:88:04:14:13:f6:8c:d6:96:71:03:
                    2b:9a:e7:19:a0:18:f4:d3:43:b2:53:c5:59:15:3b:
                    76:f9:cf:56:22:44:33:ea:fc:70:b2:81:fd:68:e4:
                    2f:e7:8b:50:49:7a:81:89:6e:79:4c:32:f3:e8:d5:
                    1a:59:f5:92:59:c6:01:d9:83:1f:f4:91:13:0b:89:
                    60:89:85:fe:b5:44:dd:2c:7e:db:ce:fb:b3:61:dd:
                    90:b0:e0:85:ad:40:28:c9:e7:32:7c:8b:79:e5:38:
                    f3:48:b3:8c:02:40:28:3f:fa:2f:22:28:09:ec:07:
                    97:b2:88:57:5c:2d:06:9a:e1:0a:ac:02:0b:14:97:
                    ac:c2:12:ed:8a:13:bd:bd:a6:c4:c9:4b:7f:94:07:
                    70:0c:c6:e9:60:45:b2:1c:6e:4c:df:16:5b:5e:2d:
                    ff:b1:6f:3a:82:57:dc:2c:7f:54:fd:1f:b3:39:22:
                    0d:21
                Exponent: 65537 (0x10001)
        X509v3 extensions:
            X509v3 Key Usage: critical
                Certificate Sign, CRL Sign
            X509v3 Basic Constraints: critical
                CA:TRUE
            X509v3 Subject Key Identifier: 
                E9:EF:2B:0E:FB:D0:37:F4:B8:36:E3:03:AA:EF:1C:4C:48:11:88:93
            X509v3 Authority Key Identifier: 
                keyid:E9:EF:2B:0E:FB:D0:37:F4:B8:36:E3:03:AA:EF:1C:4C:48:11:88:93

    Signature Algorithm: sha1WithRSAEncryption
         ae:33:7f:2f:a3:04:06:41:5e:78:d8:8d:41:40:72:82:d0:83:
         8b:34:0b:1e:88:9b:f1:55:14:7e:9a:9c:5e:ad:c3:f7:03:09:
         58:5f:c4:0d:1b:59:71:46:e4:43:4a:6b:6e:a6:84:5f:31:ad:
         e9:50:d4:a6:4e:28:15:2c:77:e2:46:88:5f:a2:4f:74:35:9b:
         cd:9e:b0:49:05:7a:ca:41:06:4a:7b:cb:e8:cf:99:ab:9a:ad:
         86:85:be:1e:16:6c:75:38:fd:3e:4a:64:d2:df:36:8c:11:c7:
         67:42:5b:17:54:b0:f1:0e:43:c1:0d:65:d6:8d:c1:c1:c1:85:
         a0:73:12:fb:4e:49:4a:10:b8:12:c8:a9:14:fe:a1:b8:5a:02:
         01:ae:2b:45:6d:88:b5:d0:42:db:93:39:b8:6e:39:24:30:c7:
         26:3e:d5:a5:2e:aa:5a:c0:08:cb:b1:98:75:0c:2c:f3:86:93:
         a8:a6:92:cc:da:8f:7c:02:6d:50:bd:6a:58:df:e5:a7:ee:a5:
         13:fc:33:48:02:3d:c4:12:85:2b:fb:79:10:d1:0f:15:e9:e5:
         c9:79:d4:42:83:01:a3:de:52:ae:05:59:f8:82:33:0d:d4:a4:
         ca:25:99:cb:78:e7:16:d5:f0:40:1b:a0:43:7f:91:da:03:56:
         00:86:2c:fc
-----BEGIN CERTIFICATE-----
MIID7DCCAtSgAwIBAgIBATANBgkqhkiG9w0BAQUFADCBhjESMBAGCgmSJomT8ixk
ARkWAmRlMRswGQYKCZImiZPyLGQBGRYLY29kZWNlbnRyaWMxFzAVBgNVBAoMDmNv
ZGVjZW50cmljIEFHMRwwGgYDVQQLDBNjb2RlY2VudHJpYyBSb290IENBMRwwGgYD
VQQDDBNjb2RlY2VudHJpYyBSb290IENBMB4XDTE1MTEyNzE2MjIzMFoXDTI1MTEy
NjE2MjIzMFowgYYxEjAQBgoJkiaJk/IsZAEZFgJkZTEbMBkGCgmSJomT8ixkARkW
C2NvZGVjZW50cmljMRcwFQYDVQQKDA5jb2RlY2VudHJpYyBBRzEcMBoGA1UECwwT
Y29kZWNlbnRyaWMgUm9vdCBDQTEcMBoGA1UEAwwTY29kZWNlbnRyaWMgUm9vdCBD
QTCCASIwDQYJKoZIhvcNAQEBBQADggEPADCCAQoCggEBAM6XSrIr/yGr0WU00Dxc
D2Ml2tOwqOtOQnyEUa33re9tZ50RBtXV2xI28aLjjzbgcX6pccxG35CJRfhnYNsX
0ehKDZJapfjpz0OCYt8Ybw6IBBQT9ozWlnEDK5rnGaAY9NNDslPFWRU7dvnPViJE
M+r8cLKB/WjkL+eLUEl6gYlueUwy8+jVGln1klnGAdmDH/SREwuJYImF/rVE3Sx+
2877s2HdkLDgha1AKMnnMnyLeeU480izjAJAKD/6LyIoCewHl7KIV1wtBprhCqwC
CxSXrMIS7YoTvb2mxMlLf5QHcAzG6WBFshxuTN8WW14t/7FvOoJX3Cx/VP0fszki
DSECAwEAAaNjMGEwDgYDVR0PAQH/BAQDAgEGMA8GA1UdEwEB/wQFMAMBAf8wHQYD
VR0OBBYEFOnvKw770Df0uDbjA6rvHExIEYiTMB8GA1UdIwQYMBaAFOnvKw770Df0
uDbjA6rvHExIEYiTMA0GCSqGSIb3DQEBBQUAA4IBAQCuM38vowQGQV542I1BQHKC
0IOLNAseiJvxVRR+mpxercP3AwlYX8QNG1lxRuRDSmtupoRfMa3pUNSmTigVLHfi
Rohfok90NZvNnrBJBXrKQQZKe8voz5mrmq2Ghb4eFmx1OP0+SmTS3zaMEcdnQlsX
VLDxDkPBDWXWjcHBwYWgcxL7TklKELgSyKkU/qG4WgIBritFbYi10ELbkzm4bjkk
MMcmPtWlLqpawAjLsZh1DCzzhpOoppLM2o98Am1QvWpY3+Wn7qUT/DNIAj3EEoUr
+3kQ0Q8V6eXJedRCgwGj3lKuBVn4gjMN1KTKJZnLeOcW1fBAG6BDf5HaA1YAhiz8
-----END CERTIFICATE-----
